target datalayout = "e-m:e-p270:32:32-p271:32:32-p272:64:64-i64:64-i128:128-f80:128-n8:16:32:64-S128"
target triple = "x86_64-unknown-linux-gnu"

%struct.BdrvDirtyBitmap = type { ptr, ptr, i8, ptr, ptr, i64, i8, i32, i8, i8, i8, i8, %struct.anon }
%struct.anon = type { ptr, ptr }

@.str.1 = private unnamed_addr constant [29 x i8] c"../qemu/block/dirty-bitmap.c\00", align 1
@.str.14 = private unnamed_addr constant [32 x i8] c"!bdrv_dirty_bitmap_busy(bitmap)\00", align 1
@.str.15 = private unnamed_addr constant [41 x i8] c"!bdrv_dirty_bitmap_has_successor(bitmap)\00", align 1
@.str.16 = private unnamed_addr constant [26 x i8] c"!bitmap->active_iterators\00", align 1
@__PRETTY_FUNCTION__.bdrv_release_dirty_bitmap_locked = private unnamed_addr constant [57 x i8] c"void bdrv_release_dirty_bitmap_locked(BdrvDirtyBitmap *)\00", align 1

; Function Attrs: nounwind sspstrong uwtable
define dso_local zeroext i1 @bdrv_dirty_bitmap_has_successor(ptr noundef %bitmap) #0 {
entry:
  %bitmap.addr = alloca ptr, align 8
  store ptr %bitmap, ptr %bitmap.addr, align 8
  %0 = load ptr, ptr %bitmap.addr, align 8
  %successor = getelementptr inbounds %struct.BdrvDirtyBitmap, ptr %0, i32 0, i32 3
  %1 = load ptr, ptr %successor, align 8
  %tobool = icmp ne ptr %1, null
  ret i1 %tobool
}

; Function Attrs: nounwind sspstrong uwtable
define internal zeroext i1 @bdrv_dirty_bitmap_busy(ptr noundef %bitmap) #0 {
entry:
  %bitmap.addr = alloca ptr, align 8
  store ptr %bitmap, ptr %bitmap.addr, align 8
  %0 = load ptr, ptr %bitmap.addr, align 8
  %busy = getelementptr inbounds %struct.BdrvDirtyBitmap, ptr %0, i32 0, i32 2
  %1 = load i8, ptr %busy, align 8
  %tobool = trunc i8 %1 to i1
  ret i1 %tobool
}

; Function Attrs: nounwind sspstrong uwtable
define internal void @bdrv_release_dirty_bitmap_locked(ptr noundef %bitmap) #0 {
entry:
  %bitmap.addr = alloca ptr, align 8
  store ptr %bitmap, ptr %bitmap.addr, align 8
  %0 = load ptr, ptr %bitmap.addr, align 8
  %active_iterators = getelementptr inbounds %struct.BdrvDirtyBitmap, ptr %0, i32 0, i32 7
  %1 = load i32, ptr %active_iterators, align 4
  %tobool = icmp ne i32 %1, 0
  br i1 %tobool, label %if.else, label %if.then

if.then:                                          ; preds = %entry
  br label %if.end

if.else:                                          ; preds = %entry
  call void @__assert_fail(ptr noundef @.str.16, ptr noundef @.str.1, i32 noundef 259, ptr noundef @__PRETTY_FUNCTION__.bdrv_release_dirty_bitmap_locked) #11
  unreachable

if.end:                                           ; preds = %if.then
  %2 = load ptr, ptr %bitmap.addr, align 8
  %call = call zeroext i1 @bdrv_dirty_bitmap_busy(ptr noundef %2)
  br i1 %call, label %if.else2, label %if.then1

if.then1:                                         ; preds = %if.end
  br label %if.end3

if.else2:                                         ; preds = %if.end
  call void @__assert_fail(ptr noundef @.str.14, ptr noundef @.str.1, i32 noundef 260, ptr noundef @__PRETTY_FUNCTION__.bdrv_release_dirty_bitmap_locked) #11
  unreachable

if.end3:                                          ; preds = %if.then1
  %3 = load ptr, ptr %bitmap.addr, align 8
  %call4 = call zeroext i1 @bdrv_dirty_bitmap_has_successor(ptr noundef %3)
  br i1 %call4, label %if.else6, label %if.then5

if.then5:                                         ; preds = %if.end3
  br label %if.end7

if.else6:                                         ; preds = %if.end3
  call void @__assert_fail(ptr noundef @.str.15, ptr noundef @.str.1, i32 noundef 261, ptr noundef @__PRETTY_FUNCTION__.bdrv_release_dirty_bitmap_locked) #11
  unreachable

if.end7:                                          ; preds = %if.then5
  br label %do.body

do.body:                                          ; preds = %if.end7
  %4 = load ptr, ptr %bitmap.addr, align 8
  %list = getelementptr inbounds %struct.BdrvDirtyBitmap, ptr %4, i32 0, i32 12
  %le_next = getelementptr inbounds %struct.anon, ptr %list, i32 0, i32 0
  %5 = load ptr, ptr %le_next, align 8
  %cmp = icmp ne ptr %5, null
  br i1 %cmp, label %if.then8, label %if.end14

if.then8:                                         ; preds = %do.body
  %6 = load ptr, ptr %bitmap.addr, align 8
  %list9 = getelementptr inbounds %struct.BdrvDirtyBitmap, ptr %6, i32 0, i32 12
  %le_prev = getelementptr inbounds %struct.anon, ptr %list9, i32 0, i32 1
  %7 = load ptr, ptr %le_prev, align 8
  %8 = load ptr, ptr %bitmap.addr, align 8
  %list10 = getelementptr inbounds %struct.BdrvDirtyBitmap, ptr %8, i32 0, i32 12
  %le_next11 = getelementptr inbounds %struct.anon, ptr %list10, i32 0, i32 0
  %9 = load ptr, ptr %le_next11, align 8
  %list12 = getelementptr inbounds %struct.BdrvDirtyBitmap, ptr %9, i32 0, i32 12
  %le_prev13 = getelementptr inbounds %struct.anon, ptr %list12, i32 0, i32 1
  store ptr %7, ptr %le_prev13, align 8
  br label %if.end14

if.end14:                                         ; preds = %if.then8, %do.body
  %10 = load ptr, ptr %bitmap.addr, align 8
  %list15 = getelementptr inbounds %struct.BdrvDirtyBitmap, ptr %10, i32 0, i32 12
  %le_next16 = getelementptr inbounds %struct.anon, ptr %list15, i32 0, i32 0
  %11 = load ptr, ptr %le_next16, align 8
  %12 = load ptr, ptr %bitmap.addr, align 8
  %list17 = getelementptr inbounds %struct.BdrvDirtyBitmap, ptr %12, i32 0, i32 12
  %le_prev18 = getelementptr inbounds %struct.anon, ptr %list17, i32 0, i32 1
  %13 = load ptr, ptr %le_prev18, align 8
  store ptr %11, ptr %13, align 8
  %14 = load ptr, ptr %bitmap.addr, align 8
  %list19 = getelementptr inbounds %struct.BdrvDirtyBitmap, ptr %14, i32 0, i32 12
  %le_next20 = getelementptr inbounds %struct.anon, ptr %list19, i32 0, i32 0
  store ptr null, ptr %le_next20, align 8
  %15 = load ptr, ptr %bitmap.addr, align 8
  %list21 = getelementptr inbounds %struct.BdrvDirtyBitmap, ptr %15, i32 0, i32 12
  %le_prev22 = getelementptr inbounds %struct.anon, ptr %list21, i32 0, i32 1
  store ptr null, ptr %le_prev22, align 8
  br label %do.end

do.end:                                           ; preds = %if.end14
  %16 = load ptr, ptr %bitmap.addr, align 8
  %bitmap23 = getelementptr inbounds %struct.BdrvDirtyBitmap, ptr %16, i32 0, i32 1
  %17 = load ptr, ptr %bitmap23, align 8
  call void @hbitmap_free(ptr noundef %17)
  %18 = load ptr, ptr %bitmap.addr, align 8
  %name = getelementptr inbounds %struct.BdrvDirtyBitmap, ptr %18, i32 0, i32 4
  %19 = load ptr, ptr %name, align 8
  call void @g_free(ptr noundef %19)
  %20 = load ptr, ptr %bitmap.addr, align 8
  call void @g_free(ptr noundef %20)
  ret void
}