; Function Attrs: nounwind sspstrong uwtable
define internal fastcc void @bdrv_release_dirty_bitmap_locked(ptr noundef %bitmap) unnamed_addr #0 {
entry:
  %active_iterators = getelementptr inbounds nuw i8, ptr %bitmap, i64 52
  %0 = load i32, ptr %active_iterators, align 4
  %tobool.not = icmp eq i32 %0, 0
  br i1 %tobool.not, label %if.end, label %if.else

if.else:                                          ; preds = %entry
  tail call void @__assert_fail(ptr noundef nonnull @.str.16, ptr noundef nonnull @.str.1, i32 noundef 259, ptr noundef nonnull @__PRETTY_FUNCTION__.bdrv_release_dirty_bitmap_locked) #15
  unreachable

if.end:                                           ; preds = %entry
  %1 = getelementptr i8, ptr %bitmap, i64 16
  %bitmap.val = load i8, ptr %1, align 8
  %tobool.i = trunc i8 %bitmap.val to i1
  br i1 %tobool.i, label %if.else2, label %if.end3

if.else2:                                         ; preds = %if.end
  tail call void @__assert_fail(ptr noundef nonnull @.str.14, ptr noundef nonnull @.str.1, i32 noundef 260, ptr noundef nonnull @__PRETTY_FUNCTION__.bdrv_release_dirty_bitmap_locked) #15
  unreachable

if.end3:                                          ; preds = %if.end
  %successor.i = getelementptr inbounds nuw i8, ptr %bitmap, i64 24
  %2 = load ptr, ptr %successor.i, align 8
  %tobool.i13.not = icmp eq ptr %2, null
  br i1 %tobool.i13.not, label %do.body, label %if.else6

if.else6:                                         ; preds = %if.end3
  tail call void @__assert_fail(ptr noundef nonnull @.str.15, ptr noundef nonnull @.str.1, i32 noundef 261, ptr noundef nonnull @__PRETTY_FUNCTION__.bdrv_release_dirty_bitmap_locked) #15
  unreachable

do.body:                                          ; preds = %if.end3
  %list = getelementptr inbounds nuw i8, ptr %bitmap, i64 64
  %3 = load ptr, ptr %list, align 8
  %cmp.not = icmp eq ptr %3, null
  %le_prev18.phi.trans.insert = getelementptr inbounds nuw i8, ptr %bitmap, i64 72
  %.pre14 = load ptr, ptr %le_prev18.phi.trans.insert, align 8
  br i1 %cmp.not, label %if.end14, label %if.then8

if.then8:                                         ; preds = %do.body
  %le_prev13 = getelementptr inbounds nuw i8, ptr %3, i64 72
  store ptr %.pre14, ptr %le_prev13, align 8
  %.pre = load ptr, ptr %list, align 8
  br label %if.end14

if.end14:                                         ; preds = %do.body, %if.then8
  %4 = phi ptr [ %.pre, %if.then8 ], [ null, %do.body ]
  store ptr %4, ptr %.pre14, align 8
  %bitmap23 = getelementptr inbounds nuw i8, ptr %bitmap, i64 8
  tail call void @llvm.memset.p0.i64(ptr noundef nonnull align 8 dereferenceable(16) %list, i8 0, i64 16, i1 false)
  %5 = load ptr, ptr %bitmap23, align 8
  tail call void @hbitmap_free(ptr noundef %5) #14
  %name = getelementptr inbounds nuw i8, ptr %bitmap, i64 32
  %6 = load ptr, ptr %name, align 8
  tail call void @g_free(ptr noundef %6) #14
  tail call void @g_free(ptr noundef nonnull %bitmap) #14
  ret void
}